; ModuleID = '59/1231.c'
source_filename = "59/1231.c"
target datalayout = "e-m:e-p270:32:32-p271:32:32-p272:64:64-i64:64-f80:128-n8:16:32:64-S128"
target triple = "x86_64-pc-linux-gnu"

@.str = private unnamed_addr constant [3 x i8] c"%d\00", align 1
@.str.1 = private unnamed_addr constant [4 x i8] c" %c\00", align 1

; Function Attrs: noinline nounwind uwtable
define dso_local i32 @main() #0 {
  %1 = alloca i32, align 4
  %2 = alloca [102 x [102 x i8]], align 16
  %3 = alloca [102 x [102 x i32]], align 16
  %4 = alloca i32, align 4
  %5 = alloca i32, align 4
  %6 = alloca i32, align 4
  %7 = alloca i32, align 4
  %8 = alloca i32, align 4
  %9 = alloca i32, align 4
  store i32 0, i32* %1, align 4
  %10 = bitcast [102 x [102 x i8]]* %2 to i8*
  call void @llvm.memset.p0i8.i64(i8* align 16 %10, i8 0, i64 10404, i1 false)
  %11 = bitcast [102 x [102 x i32]]* %3 to i8*
  call void @llvm.memset.p0i8.i64(i8* align 16 %11, i8 0, i64 41616, i1 false)
  store i32 0, i32* %8, align 4
  %12 = call i32 (i8*, ...) @__isoc99_scanf(i8* getelementptr inbounds ([3 x i8], [3 x i8]* @.str, i64 0, i64 0), i32* %4)
  store i32 1, i32* %6, align 4
  br label %13

13:                                               ; preds = %47, %0
  %14 = load i32, i32* %6, align 4
  %15 = load i32, i32* %4, align 4
  %16 = icmp sle i32 %14, %15
  br i1 %16, label %17, label %50

17:                                               ; preds = %13
  store i32 1, i32* %7, align 4
  br label %18

18:                                               ; preds = %43, %17
  %19 = load i32, i32* %7, align 4
  %20 = load i32, i32* %4, align 4
  %21 = icmp sle i32 %19, %20
  br i1 %21, label %22, label %46

22:                                               ; preds = %18
  %23 = load i32, i32* %6, align 4
  %24 = sext i32 %23 to i64
  %25 = getelementptr inbounds [102 x [102 x i8]], [102 x [102 x i8]]* %2, i64 0, i64 %24
  %26 = load i32, i32* %7, align 4
  %27 = sext i32 %26 to i64
  %28 = getelementptr inbounds [102 x i8], [102 x i8]* %25, i64 0, i64 %27
  %29 = call i32 (i8*, ...) @__isoc99_scanf(i8* getelementptr inbounds ([4 x i8], [4 x i8]* @.str.1, i64 0, i64 0), i8* %28)
  %30 = load i32, i32* %6, align 4
  %31 = sext i32 %30 to i64
  %32 = getelementptr inbounds [102 x [102 x i8]], [102 x [102 x i8]]* %2, i64 0, i64 %31
  %33 = load i32, i32* %7, align 4
  %34 = sext i32 %33 to i64
  %35 = getelementptr inbounds [102 x i8], [102 x i8]* %32, i64 0, i64 %34
  %36 = load i8, i8* %35, align 1
  %37 = sext i8 %36 to i32
  %38 = icmp eq i32 %37, 64
  br i1 %38, label %39, label %42

39:                                               ; preds = %22
  %40 = load i32, i32* %8, align 4
  %41 = add nsw i32 %40, 1
  store i32 %41, i32* %8, align 4
  br label %42

42:                                               ; preds = %39, %22
  br label %43

43:                                               ; preds = %42
  %44 = load i32, i32* %7, align 4
  %45 = add nsw i32 %44, 1
  store i32 %45, i32* %7, align 4
  br label %18

46:                                               ; preds = %18
  br label %47

47:                                               ; preds = %46
  %48 = load i32, i32* %6, align 4
  %49 = add nsw i32 %48, 1
  store i32 %49, i32* %6, align 4
  br label %13

50:                                               ; preds = %13
  %51 = call i32 (i8*, ...) @__isoc99_scanf(i8* getelementptr inbounds ([3 x i8], [3 x i8]* @.str, i64 0, i64 0), i32* %5)
  store i32 0, i32* %9, align 4
  br label %52

52:                                               ; preds = %205, %50
  %53 = load i32, i32* %9, align 4
  %54 = load i32, i32* %5, align 4
  %55 = sub nsw i32 %54, 1
  %56 = icmp slt i32 %53, %55
  br i1 %56, label %57, label %208

57:                                               ; preds = %52
  store i32 1, i32* %6, align 4
  br label %58

58:                                               ; preds = %89, %57
  %59 = load i32, i32* %6, align 4
  %60 = load i32, i32* %4, align 4
  %61 = icmp sle i32 %59, %60
  br i1 %61, label %62, label %92

62:                                               ; preds = %58
  store i32 1, i32* %7, align 4
  br label %63

63:                                               ; preds = %85, %62
  %64 = load i32, i32* %7, align 4
  %65 = load i32, i32* %4, align 4
  %66 = icmp sle i32 %64, %65
  br i1 %66, label %67, label %88

67:                                               ; preds = %63
  %68 = load i32, i32* %6, align 4
  %69 = sext i32 %68 to i64
  %70 = getelementptr inbounds [102 x [102 x i8]], [102 x [102 x i8]]* %2, i64 0, i64 %69
  %71 = load i32, i32* %7, align 4
  %72 = sext i32 %71 to i64
  %73 = getelementptr inbounds [102 x i8], [102 x i8]* %70, i64 0, i64 %72
  %74 = load i8, i8* %73, align 1
  %75 = sext i8 %74 to i32
  %76 = icmp eq i32 %75, 64
  br i1 %76, label %77, label %84

77:                                               ; preds = %67
  %78 = load i32, i32* %6, align 4
  %79 = sext i32 %78 to i64
  %80 = getelementptr inbounds [102 x [102 x i32]], [102 x [102 x i32]]* %3, i64 0, i64 %79
  %81 = load i32, i32* %7, align 4
  %82 = sext i32 %81 to i64
  %83 = getelementptr inbounds [102 x i32], [102 x i32]* %80, i64 0, i64 %82
  store i32 1, i32* %83, align 4
  br label %84

84:                                               ; preds = %77, %67
  br label %85

85:                                               ; preds = %84
  %86 = load i32, i32* %7, align 4
  %87 = add nsw i32 %86, 1
  store i32 %87, i32* %7, align 4
  br label %63

88:                                               ; preds = %63
  br label %89

89:                                               ; preds = %88
  %90 = load i32, i32* %6, align 4
  %91 = add nsw i32 %90, 1
  store i32 %91, i32* %6, align 4
  br label %58

92:                                               ; preds = %58
  store i32 1, i32* %6, align 4
  br label %93

93:                                               ; preds = %201, %92
  %94 = load i32, i32* %6, align 4
  %95 = load i32, i32* %4, align 4
  %96 = icmp sle i32 %94, %95
  br i1 %96, label %97, label %204

97:                                               ; preds = %93
  store i32 1, i32* %7, align 4
  br label %98

98:                                               ; preds = %197, %97
  %99 = load i32, i32* %7, align 4
  %100 = load i32, i32* %4, align 4
  %101 = icmp sle i32 %99, %100
  br i1 %101, label %102, label %200

102:                                              ; preds = %98
  %103 = load i32, i32* %6, align 4
  %104 = sext i32 %103 to i64
  %105 = getelementptr inbounds [102 x [102 x i32]], [102 x [102 x i32]]* %3, i64 0, i64 %104
  %106 = load i32, i32* %7, align 4
  %107 = sext i32 %106 to i64
  %108 = getelementptr inbounds [102 x i32], [102 x i32]* %105, i64 0, i64 %107
  %109 = load i32, i32* %108, align 4
  %110 = icmp eq i32 %109, 1
  br i1 %110, label %111, label %196

111:                                              ; preds = %102
  %112 = load i32, i32* %6, align 4
  %113 = sub nsw i32 %112, 1
  %114 = sext i32 %113 to i64
  %115 = getelementptr inbounds [102 x [102 x i8]], [102 x [102 x i8]]* %2, i64 0, i64 %114
  %116 = load i32, i32* %7, align 4
  %117 = sext i32 %116 to i64
  %118 = getelementptr inbounds [102 x i8], [102 x i8]* %115, i64 0, i64 %117
  %119 = load i8, i8* %118, align 1
  %120 = sext i8 %119 to i32
  %121 = icmp eq i32 %120, 46
  br i1 %121, label %122, label %132

122:                                              ; preds = %111
  %123 = load i32, i32* %6, align 4
  %124 = sub nsw i32 %123, 1
  %125 = sext i32 %124 to i64
  %126 = getelementptr inbounds [102 x [102 x i8]], [102 x [102 x i8]]* %2, i64 0, i64 %125
  %127 = load i32, i32* %7, align 4
  %128 = sext i32 %127 to i64
  %129 = getelementptr inbounds [102 x i8], [102 x i8]* %126, i64 0, i64 %128
  store i8 64, i8* %129, align 1
  %130 = load i32, i32* %8, align 4
  %131 = add nsw i32 %130, 1
  store i32 %131, i32* %8, align 4
  br label %132

132:                                              ; preds = %122, %111
  %133 = load i32, i32* %6, align 4
  %134 = add nsw i32 %133, 1
  %135 = sext i32 %134 to i64
  %136 = getelementptr inbounds [102 x [102 x i8]], [102 x [102 x i8]]* %2, i64 0, i64 %135
  %137 = load i32, i32* %7, align 4
  %138 = sext i32 %137 to i64
  %139 = getelementptr inbounds [102 x i8], [102 x i8]* %136, i64 0, i64 %138
  %140 = load i8, i8* %139, align 1
  %141 = sext i8 %140 to i32
  %142 = icmp eq i32 %141, 46
  br i1 %142, label %143, label %153

143:                                              ; preds = %132
  %144 = load i32, i32* %6, align 4
  %145 = add nsw i32 %144, 1
  %146 = sext i32 %145 to i64
  %147 = getelementptr inbounds [102 x [102 x i8]], [102 x [102 x i8]]* %2, i64 0, i64 %146
  %148 = load i32, i32* %7, align 4
  %149 = sext i32 %148 to i64
  %150 = getelementptr inbounds [102 x i8], [102 x i8]* %147, i64 0, i64 %149
  store i8 64, i8* %150, align 1
  %151 = load i32, i32* %8, align 4
  %152 = add nsw i32 %151, 1
  store i32 %152, i32* %8, align 4
  br label %153

153:                                              ; preds = %143, %132
  %154 = load i32, i32* %6, align 4
  %155 = sext i32 %154 to i64
  %156 = getelementptr inbounds [102 x [102 x i8]], [102 x [102 x i8]]* %2, i64 0, i64 %155
  %157 = load i32, i32* %7, align 4
  %158 = add nsw i32 %157, 1
  %159 = sext i32 %158 to i64
  %160 = getelementptr inbounds [102 x i8], [102 x i8]* %156, i64 0, i64 %159
  %161 = load i8, i8* %160, align 1
  %162 = sext i8 %161 to i32
  %163 = icmp eq i32 %162, 46
  br i1 %163, label %164, label %174

164:                                              ; preds = %153
  %165 = load i32, i32* %6, align 4
  %166 = sext i32 %165 to i64
  %167 = getelementptr inbounds [102 x [102 x i8]], [102 x [102 x i8]]* %2, i64 0, i64 %166
  %168 = load i32, i32* %7, align 4
  %169 = add nsw i32 %168, 1
  %170 = sext i32 %169 to i64
  %171 = getelementptr inbounds [102 x i8], [102 x i8]* %167, i64 0, i64 %170
  store i8 64, i8* %171, align 1
  %172 = load i32, i32* %8, align 4
  %173 = add nsw i32 %172, 1
  store i32 %173, i32* %8, align 4
  br label %174

174:                                              ; preds = %164, %153
  %175 = load i32, i32* %6, align 4
  %176 = sext i32 %175 to i64
  %177 = getelementptr inbounds [102 x [102 x i8]], [102 x [102 x i8]]* %2, i64 0, i64 %176
  %178 = load i32, i32* %7, align 4
  %179 = sub nsw i32 %178, 1
  %180 = sext i32 %179 to i64
  %181 = getelementptr inbounds [102 x i8], [102 x i8]* %177, i64 0, i64 %180
  %182 = load i8, i8* %181, align 1
  %183 = sext i8 %182 to i32
  %184 = icmp eq i32 %183, 46
  br i1 %184, label %185, label %195

185:                                              ; preds = %174
  %186 = load i32, i32* %6, align 4
  %187 = sext i32 %186 to i64
  %188 = getelementptr inbounds [102 x [102 x i8]], [102 x [102 x i8]]* %2, i64 0, i64 %187
  %189 = load i32, i32* %7, align 4
  %190 = sub nsw i32 %189, 1
  %191 = sext i32 %190 to i64
  %192 = getelementptr inbounds [102 x i8], [102 x i8]* %188, i64 0, i64 %191
  store i8 64, i8* %192, align 1
  %193 = load i32, i32* %8, align 4
  %194 = add nsw i32 %193, 1
  store i32 %194, i32* %8, align 4
  br label %195

195:                                              ; preds = %185, %174
  br label %196

196:                                              ; preds = %195, %102
  br label %197

197:                                              ; preds = %196
  %198 = load i32, i32* %7, align 4
  %199 = add nsw i32 %198, 1
  store i32 %199, i32* %7, align 4
  br label %98

200:                                              ; preds = %98
  br label %201

201:                                              ; preds = %200
  %202 = load i32, i32* %6, align 4
  %203 = add nsw i32 %202, 1
  store i32 %203, i32* %6, align 4
  br label %93

204:                                              ; preds = %93
  br label %205

205:                                              ; preds = %204
  %206 = load i32, i32* %9, align 4
  %207 = add nsw i32 %206, 1
  store i32 %207, i32* %9, align 4
  br label %52

208:                                              ; preds = %52
  %209 = load i32, i32* %8, align 4
  %210 = call i32 (i8*, ...) @printf(i8* getelementptr inbounds ([3 x i8], [3 x i8]* @.str, i64 0, i64 0), i32 %209)
  ret i32 0
}

; Function Attrs: argmemonly nounwind willreturn
declare void @llvm.memset.p0i8.i64(i8* nocapture writeonly, i8, i64, i1 immarg) #1

declare dso_local i32 @__isoc99_scanf(i8*, ...) #2

declare dso_local i32 @printf(i8*, ...) #2


!llvm.module.flags = !{!0}
!llvm.ident = !{!1}

!0 = !{i32 1, !"wchar_size", i32 4}
!1 = !{!"clang version 10.0.0-4ubuntu1 "}
